; Function Attrs: mustprogress nounwind uwtable
define hidden void @_ZN10VM_Version14initialize_tscEv() local_unnamed_addr #1 align 2 {
  %1 = alloca %class.CodeBuffer, align 8
  %2 = alloca %class.VM_Version_StubGenerator, align 8
  %3 = tail call align 8 ptr @llvm.threadlocal.address.p0(ptr align 8 @_ZN6Thread12_thr_currentE)
  %4 = load ptr, ptr %3, align 8
  %5 = getelementptr inbounds i8, ptr %4, i64 800
  %6 = load ptr, ptr %5, align 8
  %7 = getelementptr inbounds i8, ptr %6, i64 24
  %8 = load ptr, ptr %7, align 8
  %9 = getelementptr inbounds i8, ptr %6, i64 32
  %10 = load ptr, ptr %9, align 8
  %11 = getelementptr inbounds i8, ptr %6, i64 40
  %12 = load ptr, ptr %11, align 8
  %13 = getelementptr inbounds i8, ptr %6, i64 8
  %14 = load i64, ptr %13, align 8
  %15 = tail call noundef ptr @_ZN10BufferBlob6createEPKcj(ptr noundef nonnull @.str.125, i32 noundef 550) #14
  store ptr %15, ptr @_ZL28cpuid_brand_string_stub_blob, align 8
  %16 = icmp eq ptr %15, null
  br i1 %16, label %17, label %18

17:                                               ; preds = %0
  tail call void @_Z29vm_exit_during_initializationPKcS0_(ptr noundef nonnull @.str.126, ptr noundef null) #14
  %.pre = load ptr, ptr @_ZL28cpuid_brand_string_stub_blob, align 8
  br label %18

18:                                               ; preds = %17, %0
  %19 = phi ptr [ %.pre, %17 ], [ %15, %0 ]
  call void @_ZN10CodeBufferC1EP8CodeBlob(ptr noundef nonnull align 8 dereferenceable(448) %1, ptr noundef %19) #14
  call void @_ZN17StubCodeGeneratorC2EP10CodeBufferb(ptr noundef nonnull align 8 dereferenceable(24) %2, ptr noundef nonnull %1, i1 noundef zeroext false) #14
  store ptr getelementptr inbounds inrange(-16, 16) (i8, ptr @_ZTV24VM_Version_StubGenerator, i64 16), ptr %2, align 8
  %20 = call noundef ptr @_ZN24VM_Version_StubGenerator28generate_getCPUIDBrandStringEv(ptr noundef nonnull align 8 dereferenceable(24) %2)
  store ptr %20, ptr @_ZL24getCPUIDBrandString_stub, align 8
  call void @_ZN17StubCodeGeneratorD2Ev(ptr noundef nonnull align 8 dereferenceable(24) %2) #14
  call void @_ZN10CodeBufferD1Ev(ptr noundef nonnull align 8 dereferenceable(448) %1) #14
  %21 = load ptr, ptr %8, align 8
  %.not.i.i.i.i = icmp eq ptr %21, null
  br i1 %.not.i.i.i.i, label %23, label %22

22:                                               ; preds = %18
  call void @_ZN5Arena17set_size_in_bytesEm(ptr noundef nonnull align 8 dereferenceable(48) %6, i64 noundef %14) #14
  call void @_ZN5Chunk9next_chopEPS_(ptr noundef nonnull %8) #14
  br label %23

23:                                               ; preds = %22, %18
  %24 = load ptr, ptr %9, align 8
  %.not8.i.i.i.i = icmp eq ptr %24, %10
  br i1 %.not8.i.i.i.i, label %_ZN12ResourceMarkD2Ev.exit, label %25

25:                                               ; preds = %23
  store ptr %8, ptr %7, align 8
  store ptr %10, ptr %9, align 8
  store ptr %12, ptr %11, align 8
  br label %_ZN12ResourceMarkD2Ev.exit

_ZN12ResourceMarkD2Ev.exit:                       ; preds = %23, %25
  ret void
}